target datalayout = "e-m:e-p270:32:32-p271:32:32-p272:64:64-i64:64-i128:128-f80:128-n8:16:32:64-S128"
target triple = "x86_64-pc-linux-gnu"

%struct.AVRational = type { i32, i32 }
%struct.AVDVProfile = type { i32, i32, i32, i32, i32, %struct.AVRational, i32, i32, i32, [2 x %struct.AVRational], i32, i32, ptr, i32, [3 x i32], [5 x i32], ptr }

; Function Attrs: nounwind uwtable
define ptr @av_dv_codec_profile2(i32 noundef %0, i32 noundef %1, i32 noundef %2, i64 %3) #0 {
  %5 = alloca ptr, align 8
  %6 = alloca %struct.AVRational, align 4
  %7 = alloca i32, align 4
  %8 = alloca i32, align 4
  %9 = alloca i32, align 4
  %10 = alloca ptr, align 8
  %11 = alloca i32, align 4
  %12 = alloca i32, align 4
  %13 = alloca %struct.AVRational, align 4
  %14 = alloca i32, align 4
  store i64 %3, ptr %6, align 4
  store i32 %0, ptr %7, align 4, !tbaa !8
  store i32 %1, ptr %8, align 4, !tbaa !8
  store i32 %2, ptr %9, align 4, !tbaa !8
  call void @llvm.lifetime.start.p0(i64 8, ptr %10) #4
  store ptr null, ptr %10, align 8, !tbaa !10
  call void @llvm.lifetime.start.p0(i64 4, ptr %11) #4
  call void @llvm.lifetime.start.p0(i64 4, ptr %12) #4
  %15 = getelementptr inbounds nuw %struct.AVRational, ptr %6, i32 0, i32 0
  %16 = load i32, ptr %15, align 4, !tbaa !49
  %17 = icmp eq i32 %16, 0
  br i1 %17, label %22, label %18

18:                                               ; preds = %4
  %19 = getelementptr inbounds nuw %struct.AVRational, ptr %6, i32 0, i32 1
  %20 = load i32, ptr %19, align 4, !tbaa !50
  %21 = icmp eq i32 %20, 0
  br label %22

22:                                               ; preds = %18, %4
  %23 = phi i1 [ true, %4 ], [ %21, %18 ]
  %24 = zext i1 %23 to i32
  store i32 %24, ptr %12, align 4, !tbaa !8
  store i32 0, ptr %11, align 4, !tbaa !8
  br label %25

25:                                               ; preds = %82, %22
  %26 = load i32, ptr %11, align 4, !tbaa !8
  %27 = sext i32 %26 to i64
  %28 = icmp ult i64 %27, 10
  br i1 %28, label %29, label %85

29:                                               ; preds = %25
  %30 = load i32, ptr %8, align 4, !tbaa !8
  %31 = load i32, ptr %11, align 4, !tbaa !8
  %32 = sext i32 %31 to i64
  %33 = getelementptr inbounds [10 x %struct.AVDVProfile], ptr @dv_profiles, i64 0, i64 %32
  %34 = getelementptr inbounds nuw %struct.AVDVProfile, ptr %33, i32 0, i32 7
  %35 = load i32, ptr %34, align 8, !tbaa !16
  %36 = icmp eq i32 %30, %35
  br i1 %36, label %37, label %81

37:                                               ; preds = %29
  %38 = load i32, ptr %9, align 4, !tbaa !8
  %39 = load i32, ptr %11, align 4, !tbaa !8
  %40 = sext i32 %39 to i64
  %41 = getelementptr inbounds [10 x %struct.AVDVProfile], ptr @dv_profiles, i64 0, i64 %40
  %42 = getelementptr inbounds nuw %struct.AVDVProfile, ptr %41, i32 0, i32 10
  %43 = load i32, ptr %42, align 8, !tbaa !17
  %44 = icmp eq i32 %38, %43
  br i1 %44, label %45, label %81

45:                                               ; preds = %37
  %46 = load i32, ptr %7, align 4, !tbaa !8
  %47 = load i32, ptr %11, align 4, !tbaa !8
  %48 = sext i32 %47 to i64
  %49 = getelementptr inbounds [10 x %struct.AVDVProfile], ptr @dv_profiles, i64 0, i64 %48
  %50 = getelementptr inbounds nuw %struct.AVDVProfile, ptr %49, i32 0, i32 8
  %51 = load i32, ptr %50, align 4, !tbaa !12
  %52 = icmp eq i32 %46, %51
  br i1 %52, label %53, label %81

53:                                               ; preds = %45
  %54 = load i32, ptr %12, align 4, !tbaa !8
  %55 = icmp ne i32 %54, 0
  call void @llvm.lifetime.start.p0(i64 8, ptr %13) #4
  br i1 %55, label %67, label %56

56:                                               ; preds = %53
  %57 = load i32, ptr %11, align 4, !tbaa !8
  %58 = sext i32 %57 to i64
  %59 = getelementptr inbounds [10 x %struct.AVDVProfile], ptr @dv_profiles, i64 0, i64 %58
  %60 = getelementptr inbounds nuw %struct.AVDVProfile, ptr %59, i32 0, i32 5
  %61 = load i64, ptr %60, align 4
  %62 = load i64, ptr %6, align 4
  %63 = call i64 @av_div_q(i64 %61, i64 %62) #5
  store i64 %63, ptr %13, align 4
  %64 = getelementptr inbounds nuw %struct.AVRational, ptr %13, i32 0, i32 0
  %65 = load i32, ptr %64, align 4, !tbaa !49
  %66 = icmp eq i32 %65, 1
  br label %67

67:                                               ; preds = %56, %53
  %68 = phi i1 [ true, %53 ], [ %66, %56 ]
  call void @llvm.lifetime.end.p0(i64 8, ptr %13) #4
  br i1 %68, label %69, label %73

69:                                               ; preds = %67
  %70 = load i32, ptr %11, align 4, !tbaa !8
  %71 = sext i32 %70 to i64
  %72 = getelementptr inbounds [10 x %struct.AVDVProfile], ptr @dv_profiles, i64 0, i64 %71
  store ptr %72, ptr %5, align 8
  store i32 1, ptr %14, align 4
  br label %87

73:                                               ; preds = %67
  %74 = load ptr, ptr %10, align 8, !tbaa !10
  %75 = icmp ne ptr %74, null
  br i1 %75, label %80, label %76

76:                                               ; preds = %73
  %77 = load i32, ptr %11, align 4, !tbaa !8
  %78 = sext i32 %77 to i64
  %79 = getelementptr inbounds [10 x %struct.AVDVProfile], ptr @dv_profiles, i64 0, i64 %78
  store ptr %79, ptr %10, align 8, !tbaa !10
  br label %80

80:                                               ; preds = %76, %73
  br label %81

81:                                               ; preds = %80, %45, %37, %29
  br label %82

82:                                               ; preds = %81
  %83 = load i32, ptr %11, align 4, !tbaa !8
  %84 = add nsw i32 %83, 1
  store i32 %84, ptr %11, align 4, !tbaa !8
  br label %25, !llvm.loop !51

85:                                               ; preds = %25
  %86 = load ptr, ptr %10, align 8, !tbaa !10
  store ptr %86, ptr %5, align 8
  store i32 1, ptr %14, align 4
  br label %87

87:                                               ; preds = %85, %69
  call void @llvm.lifetime.end.p0(i64 4, ptr %12) #4
  call void @llvm.lifetime.end.p0(i64 4, ptr %11) #4
  call void @llvm.lifetime.end.p0(i64 8, ptr %10) #4
  %88 = load ptr, ptr %5, align 8
  ret ptr %88
}

; Function Attrs: nounwind uwtable
define ptr @av_dv_codec_profile(i32 noundef %0, i32 noundef %1, i32 noundef %2) #0 {
  %4 = alloca i32, align 4
  %5 = alloca i32, align 4
  %6 = alloca i32, align 4
  %7 = alloca %struct.AVRational, align 4
  store i32 %0, ptr %4, align 4, !tbaa !8
  store i32 %1, ptr %5, align 4, !tbaa !8
  store i32 %2, ptr %6, align 4, !tbaa !8
  %8 = load i32, ptr %4, align 4, !tbaa !8
  %9 = load i32, ptr %5, align 4, !tbaa !8
  %10 = load i32, ptr %6, align 4, !tbaa !8
  %11 = getelementptr inbounds nuw %struct.AVRational, ptr %7, i32 0, i32 0
  store i32 0, ptr %11, align 4, !tbaa !49
  %12 = getelementptr inbounds nuw %struct.AVRational, ptr %7, i32 0, i32 1
  store i32 0, ptr %12, align 4, !tbaa !50
  %13 = load i64, ptr %7, align 4
  %14 = call ptr @av_dv_codec_profile2(i32 noundef %8, i32 noundef %9, i32 noundef %10, i64 %13)
  ret ptr %14
}