; Function Attrs: nofree norecurse nosync nounwind memory(none) uwtable
define ptr @av_dv_codec_profile(i32 noundef %0, i32 noundef %1, i32 noundef %2) local_unnamed_addr #3 {
  br label %.split.us.i

.split.us.i:                                      ; preds = %16, %3
  %indvars.iv25.i = phi i64 [ %indvars.iv.next26.i, %16 ], [ 0, %3 ]
  %4 = getelementptr inbounds nuw [10 x %struct.AVDVProfile], ptr @dv_profiles, i64 0, i64 %indvars.iv25.i
  %5 = getelementptr inbounds nuw i8, ptr %4, i64 32
  %6 = load i32, ptr %5, align 8, !tbaa !12
  %7 = icmp eq i32 %1, %6
  br i1 %7, label %8, label %16

8:                                                ; preds = %.split.us.i
  %9 = getelementptr inbounds nuw i8, ptr %4, i64 56
  %10 = load i32, ptr %9, align 8, !tbaa !13
  %11 = icmp eq i32 %2, %10
  br i1 %11, label %12, label %16

12:                                               ; preds = %8
  %13 = getelementptr inbounds nuw i8, ptr %4, i64 36
  %14 = load i32, ptr %13, align 4, !tbaa !4
  %15 = icmp eq i32 %0, %14
  br i1 %15, label %av_dv_codec_profile2.exit, label %16

16:                                               ; preds = %12, %8, %.split.us.i
  %indvars.iv.next26.i = add nuw nsw i64 %indvars.iv25.i, 1
  %exitcond28.not.i = icmp eq i64 %indvars.iv.next26.i, 10
  br i1 %exitcond28.not.i, label %av_dv_codec_profile2.exit, label %.split.us.i, !llvm.loop !42

av_dv_codec_profile2.exit:                        ; preds = %12, %16
  %.us-phi.i = phi ptr [ %4, %12 ], [ null, %16 ]
  ret ptr %.us-phi.i
}